target datalayout = "e-m:e-p270:32:32-p271:32:32-p272:64:64-i64:64-i128:128-f80:128-n8:16:32:64-S128"
target triple = "x86_64-pc-linux-gnu"

@.str.62 = private unnamed_addr constant [18 x i8] c"~!@$%^&*_-+=<>.?/\00", align 1

; Function Attrs: mustprogress nounwind uwtable
define internal noundef zeroext i1 @_ZN12_GLOBAL__N_18SmtScope18is_character_legalEci(ptr noundef nonnull align 8 dereferenceable(128) %0, i8 noundef signext %1, i32 noundef %2) unnamed_addr #6 align 2 {
  %4 = alloca ptr, align 8
  %5 = alloca i8, align 1
  %6 = alloca i32, align 4
  store ptr %0, ptr %4, align 8, !tbaa !120
  store i8 %1, ptr %5, align 1, !tbaa !46
  store i32 %2, ptr %6, align 4, !tbaa !80
  %7 = load i8, ptr %5, align 1, !tbaa !46
  %8 = sext i8 %7 to i32
  %9 = call i32 @isascii(i32 noundef %8) #3
  %10 = icmp ne i32 %9, 0
  br i1 %10, label %11, label %31

11:                                               ; preds = %3
  %12 = load i8, ptr %5, align 1, !tbaa !46
  %13 = sext i8 %12 to i32
  %14 = call i32 @isalpha(i32 noundef %13) #22
  %15 = icmp ne i32 %14, 0
  br i1 %15, label %29, label %16

16:                                               ; preds = %11
  %17 = load i8, ptr %5, align 1, !tbaa !46
  %18 = sext i8 %17 to i32
  %19 = call i32 @isdigit(i32 noundef %18) #22
  %20 = icmp ne i32 %19, 0
  br i1 %20, label %21, label %24

21:                                               ; preds = %16
  %22 = load i32, ptr %6, align 4, !tbaa !80
  %23 = icmp sgt i32 %22, 0
  br i1 %23, label %29, label %24

24:                                               ; preds = %21, %16
  %25 = load i8, ptr %5, align 1, !tbaa !46
  %26 = sext i8 %25 to i32
  %27 = call noundef ptr @strchr(ptr noundef @.str.62, i32 noundef %26) #22
  %28 = icmp ne ptr %27, null
  br label %29

29:                                               ; preds = %24, %21, %11
  %30 = phi i1 [ true, %21 ], [ true, %11 ], [ %28, %24 ]
  br label %31

31:                                               ; preds = %29, %3
  %32 = phi i1 [ false, %3 ], [ %30, %29 ]
  ret i1 %32
}